target datalayout = "e-m:e-p270:32:32-p271:32:32-p272:64:64-i64:64-i128:128-f80:128-n8:16:32:64-S128"
target triple = "x86_64-pc-linux-gnu"

%struct.tdefl_compressor = type { ptr, ptr, i32, [2 x i32], i32, i32, i32, i32, i32, ptr, ptr, ptr, ptr, i32, i32, i32, i32, i32, i32, i32, i32, i32, i32, i32, i32, i32, i32, ptr, ptr, ptr, ptr, i32, ptr, i64, i64, [33025 x i8], [3 x [288 x i16]], [3 x [288 x i16]], [3 x [288 x i8]], [65536 x i8], [32768 x i16], [32768 x i16], [85196 x i8] }
%struct.mz_zip_archive = type { i64, i64, i32, i32, i32, i32, i64, ptr, ptr, ptr, ptr, ptr, ptr, ptr, ptr, ptr }
%struct.mz_zip_internal_state_tag = type { %struct.mz_zip_array, %struct.mz_zip_array, %struct.mz_zip_array, i32, i32, i32, ptr, i64, ptr, i64, i64 }
%struct.mz_zip_array = type { ptr, i64, i64, i32 }
%struct.mz_zip_archive_file_stat = type { i32, i64, i16, i16, i16, i16, i32, i64, i64, i16, i32, i64, i32, i32, i32, i32, [512 x i8], [512 x i8], i64 }
%struct.mz_zip_writer_add_state = type { ptr, i64, i64 }
%struct.zip_t = type { %struct.mz_zip_archive, i32, %struct.zip_entry_t }
%struct.zip_entry_t = type { i64, ptr, i64, i64, i32, i64, [30 x i8], i64, i16, %struct.mz_zip_writer_add_state, %struct.tdefl_compressor, i32, i64 }

; Function Attrs: alwaysinline nounwind uwtable
define internal i32 @mz_zip_set_error(ptr noundef %0, i32 noundef %1) #7 {
  %3 = alloca ptr, align 8
  %4 = alloca i32, align 4
  store ptr %0, ptr %3, align 8
  store i32 %1, ptr %4, align 4
  %5 = load ptr, ptr %3, align 8
  %6 = icmp ne ptr %5, null
  br i1 %6, label %7, label %11

7:                                                ; preds = %2
  %8 = load i32, ptr %4, align 4
  %9 = load ptr, ptr %3, align 8
  %10 = getelementptr inbounds nuw %struct.mz_zip_archive, ptr %9, i32 0, i32 5
  store i32 %8, ptr %10, align 4
  br label %11

11:                                               ; preds = %7, %2
  ret i32 0
}

; Function Attrs: alwaysinline nounwind uwtable
define internal ptr @mz_zip_get_cdh(ptr noundef %0, i32 noundef %1) #7 {
  %3 = alloca ptr, align 8
  %4 = alloca ptr, align 8
  %5 = alloca i32, align 4
  store ptr %0, ptr %4, align 8
  store i32 %1, ptr %5, align 4
  %6 = load ptr, ptr %4, align 8
  %7 = icmp ne ptr %6, null
  br i1 %7, label %8, label %19

8:                                                ; preds = %2
  %9 = load ptr, ptr %4, align 8
  %10 = getelementptr inbounds nuw %struct.mz_zip_archive, ptr %9, i32 0, i32 15
  %11 = load ptr, ptr %10, align 8
  %12 = icmp ne ptr %11, null
  br i1 %12, label %13, label %19

13:                                               ; preds = %8
  %14 = load i32, ptr %5, align 4
  %15 = load ptr, ptr %4, align 8
  %16 = getelementptr inbounds nuw %struct.mz_zip_archive, ptr %15, i32 0, i32 2
  %17 = load i32, ptr %16, align 8
  %18 = icmp uge i32 %14, %17
  br i1 %18, label %19, label %20

19:                                               ; preds = %13, %8, %2
  store ptr null, ptr %3, align 8
  br label %39

20:                                               ; preds = %13
  %21 = load ptr, ptr %4, align 8
  %22 = getelementptr inbounds nuw %struct.mz_zip_archive, ptr %21, i32 0, i32 15
  %23 = load ptr, ptr %22, align 8
  %24 = getelementptr inbounds nuw %struct.mz_zip_internal_state_tag, ptr %23, i32 0, i32 0
  %25 = getelementptr inbounds nuw %struct.mz_zip_array, ptr %24, i32 0, i32 0
  %26 = load ptr, ptr %25, align 8
  %27 = load ptr, ptr %4, align 8
  %28 = getelementptr inbounds nuw %struct.mz_zip_archive, ptr %27, i32 0, i32 15
  %29 = load ptr, ptr %28, align 8
  %30 = getelementptr inbounds nuw %struct.mz_zip_internal_state_tag, ptr %29, i32 0, i32 1
  %31 = getelementptr inbounds nuw %struct.mz_zip_array, ptr %30, i32 0, i32 0
  %32 = load ptr, ptr %31, align 8
  %33 = load i32, ptr %5, align 4
  %34 = zext i32 %33 to i64
  %35 = getelementptr inbounds nuw i32, ptr %32, i64 %34
  %36 = load i32, ptr %35, align 4
  %37 = zext i32 %36 to i64
  %38 = getelementptr inbounds nuw i8, ptr %26, i64 %37
  store ptr %38, ptr %3, align 8
  br label %39

39:                                               ; preds = %20, %19
  %40 = load ptr, ptr %3, align 8
  ret ptr %40
}

; Function Attrs: nounwind uwtable
define i32 @mz_zip_reader_file_stat(ptr noundef %0, i32 noundef %1, ptr noundef %2) #0 {
  %4 = alloca ptr, align 8
  %5 = alloca i32, align 4
  %6 = alloca ptr, align 8
  store ptr %0, ptr %4, align 8
  store i32 %1, ptr %5, align 4
  store ptr %2, ptr %6, align 8
  %7 = load ptr, ptr %4, align 8
  %8 = load i32, ptr %5, align 4
  %9 = load ptr, ptr %4, align 8
  %10 = load i32, ptr %5, align 4
  %11 = call ptr @mz_zip_get_cdh(ptr noundef %9, i32 noundef %10)
  %12 = load ptr, ptr %6, align 8
  %13 = call i32 @mz_zip_file_stat_internal(ptr noundef %7, i32 noundef %8, ptr noundef %11, ptr noundef %12, ptr noundef null)
  ret i32 %13
}

; Function Attrs: nounwind uwtable
define i32 @mz_zip_reader_is_file_a_directory(ptr noundef %0, i32 noundef %1) #0 {
  %3 = alloca i32, align 4
  %4 = alloca ptr, align 8
  %5 = alloca i32, align 4
  %6 = alloca i32, align 4
  %7 = alloca i32, align 4
  %8 = alloca i32, align 4
  %9 = alloca ptr, align 8
  %10 = alloca i32, align 4
  store ptr %0, ptr %4, align 8
  store i32 %1, ptr %5, align 4
  call void @llvm.lifetime.start.p0(i64 4, ptr %6) #13
  call void @llvm.lifetime.start.p0(i64 4, ptr %7) #13
  call void @llvm.lifetime.start.p0(i64 4, ptr %8) #13
  call void @llvm.lifetime.start.p0(i64 8, ptr %9) #13
  %11 = load ptr, ptr %4, align 8
  %12 = load i32, ptr %5, align 4
  %13 = call ptr @mz_zip_get_cdh(ptr noundef %11, i32 noundef %12)
  store ptr %13, ptr %9, align 8
  %14 = load ptr, ptr %9, align 8
  %15 = icmp ne ptr %14, null
  br i1 %15, label %19, label %16

16:                                               ; preds = %2
  %17 = load ptr, ptr %4, align 8
  %18 = call i32 @mz_zip_set_error(ptr noundef %17, i32 noundef 24)
  store i32 0, ptr %3, align 4
  store i32 1, ptr %10, align 4
  br label %91

19:                                               ; preds = %2
  %20 = load ptr, ptr %9, align 8
  %21 = getelementptr inbounds i8, ptr %20, i64 28
  %22 = getelementptr inbounds i8, ptr %21, i64 0
  %23 = load i8, ptr %22, align 1
  %24 = zext i8 %23 to i32
  %25 = load ptr, ptr %9, align 8
  %26 = getelementptr inbounds i8, ptr %25, i64 28
  %27 = getelementptr inbounds i8, ptr %26, i64 1
  %28 = load i8, ptr %27, align 1
  %29 = zext i8 %28 to i32
  %30 = shl i32 %29, 8
  %31 = or i32 %24, %30
  store i32 %31, ptr %6, align 4
  %32 = load i32, ptr %6, align 4
  %33 = icmp ne i32 %32, 0
  br i1 %33, label %34, label %46

34:                                               ; preds = %19
  %35 = load ptr, ptr %9, align 8
  %36 = getelementptr inbounds i8, ptr %35, i64 46
  %37 = load i32, ptr %6, align 4
  %38 = zext i32 %37 to i64
  %39 = getelementptr inbounds nuw i8, ptr %36, i64 %38
  %40 = getelementptr inbounds i8, ptr %39, i64 -1
  %41 = load i8, ptr %40, align 1
  %42 = zext i8 %41 to i32
  %43 = icmp eq i32 %42, 47
  br i1 %43, label %44, label %45

44:                                               ; preds = %34
  store i32 1, ptr %3, align 4
  store i32 1, ptr %10, align 4
  br label %91

45:                                               ; preds = %34
  br label %46

46:                                               ; preds = %45, %19
  %47 = load ptr, ptr %9, align 8
  %48 = getelementptr inbounds i8, ptr %47, i64 4
  %49 = getelementptr inbounds i8, ptr %48, i64 0
  %50 = load i8, ptr %49, align 1
  %51 = zext i8 %50 to i32
  %52 = load ptr, ptr %9, align 8
  %53 = getelementptr inbounds i8, ptr %52, i64 4
  %54 = getelementptr inbounds i8, ptr %53, i64 1
  %55 = load i8, ptr %54, align 1
  %56 = zext i8 %55 to i32
  %57 = shl i32 %56, 8
  %58 = or i32 %51, %57
  %59 = lshr i32 %58, 8
  store i32 %59, ptr %7, align 4
  %60 = load ptr, ptr %9, align 8
  %61 = getelementptr inbounds i8, ptr %60, i64 38
  %62 = getelementptr inbounds i8, ptr %61, i64 0
  %63 = load i8, ptr %62, align 1
  %64 = zext i8 %63 to i32
  %65 = load ptr, ptr %9, align 8
  %66 = getelementptr inbounds i8, ptr %65, i64 38
  %67 = getelementptr inbounds i8, ptr %66, i64 1
  %68 = load i8, ptr %67, align 1
  %69 = zext i8 %68 to i32
  %70 = shl i32 %69, 8
  %71 = or i32 %64, %70
  %72 = load ptr, ptr %9, align 8
  %73 = getelementptr inbounds i8, ptr %72, i64 38
  %74 = getelementptr inbounds i8, ptr %73, i64 2
  %75 = load i8, ptr %74, align 1
  %76 = zext i8 %75 to i32
  %77 = shl i32 %76, 16
  %78 = or i32 %71, %77
  %79 = load ptr, ptr %9, align 8
  %80 = getelementptr inbounds i8, ptr %79, i64 38
  %81 = getelementptr inbounds i8, ptr %80, i64 3
  %82 = load i8, ptr %81, align 1
  %83 = zext i8 %82 to i32
  %84 = shl i32 %83, 24
  %85 = or i32 %78, %84
  store i32 %85, ptr %8, align 4
  %86 = load i32, ptr %8, align 4
  %87 = and i32 %86, 16
  %88 = icmp ne i32 %87, 0
  br i1 %88, label %89, label %90

89:                                               ; preds = %46
  store i32 1, ptr %3, align 4
  store i32 1, ptr %10, align 4
  br label %91

90:                                               ; preds = %46
  store i32 0, ptr %3, align 4
  store i32 1, ptr %10, align 4
  br label %91

91:                                               ; preds = %90, %89, %44, %16
  call void @llvm.lifetime.end.p0(i64 8, ptr %9) #13
  call void @llvm.lifetime.end.p0(i64 4, ptr %8) #13
  call void @llvm.lifetime.end.p0(i64 4, ptr %7) #13
  call void @llvm.lifetime.end.p0(i64 4, ptr %6) #13
  %92 = load i32, ptr %3, align 4
  ret i32 %92
}

; Function Attrs: nounwind uwtable
define i32 @zip_entry_fread(ptr noundef %0, ptr noundef %1) #0 {
  %3 = alloca i32, align 4
  %4 = alloca ptr, align 8
  %5 = alloca ptr, align 8
  %6 = alloca ptr, align 8
  %7 = alloca i32, align 4
  %8 = alloca i32, align 4
  %9 = alloca %struct.mz_zip_archive_file_stat, align 8
  %10 = alloca i32, align 4
  store ptr %0, ptr %4, align 8
  store ptr %1, ptr %5, align 8
  call void @llvm.lifetime.start.p0(i64 8, ptr %6) #13
  store ptr null, ptr %6, align 8
  call void @llvm.lifetime.start.p0(i64 4, ptr %7) #13
  call void @llvm.lifetime.start.p0(i64 4, ptr %8) #13
  store i32 0, ptr %8, align 4
  call void @llvm.lifetime.start.p0(i64 1112, ptr %9) #13
  %11 = load ptr, ptr %4, align 8
  %12 = icmp ne ptr %11, null
  br i1 %12, label %14, label %13

13:                                               ; preds = %2
  store i32 -1, ptr %3, align 4
  store i32 1, ptr %10, align 4
  br label %70

14:                                               ; preds = %2
  call void @llvm.memset.p0.i64(ptr align 8 %9, i8 0, i64 1112, i1 false)
  %15 = load ptr, ptr %4, align 8
  %16 = getelementptr inbounds nuw %struct.zip_t, ptr %15, i32 0, i32 0
  store ptr %16, ptr %6, align 8
  %17 = load ptr, ptr %6, align 8
  %18 = getelementptr inbounds nuw %struct.mz_zip_archive, ptr %17, i32 0, i32 3
  %19 = load i32, ptr %18, align 4
  %20 = icmp ne i32 %19, 1
  br i1 %20, label %27, label %21

21:                                               ; preds = %14
  %22 = load ptr, ptr %4, align 8
  %23 = getelementptr inbounds nuw %struct.zip_t, ptr %22, i32 0, i32 2
  %24 = getelementptr inbounds nuw %struct.zip_entry_t, ptr %23, i32 0, i32 0
  %25 = load i64, ptr %24, align 8
  %26 = icmp slt i64 %25, 0
  br i1 %26, label %27, label %28

27:                                               ; preds = %21, %14
  store i32 -3, ptr %3, align 4
  store i32 1, ptr %10, align 4
  br label %70

28:                                               ; preds = %21
  %29 = load ptr, ptr %4, align 8
  %30 = getelementptr inbounds nuw %struct.zip_t, ptr %29, i32 0, i32 2
  %31 = getelementptr inbounds nuw %struct.zip_entry_t, ptr %30, i32 0, i32 0
  %32 = load i64, ptr %31, align 8
  %33 = trunc i64 %32 to i32
  store i32 %33, ptr %7, align 4
  %34 = load ptr, ptr %6, align 8
  %35 = load i32, ptr %7, align 4
  %36 = call i32 @mz_zip_reader_is_file_a_directory(ptr noundef %34, i32 noundef %35)
  %37 = icmp ne i32 %36, 0
  br i1 %37, label %38, label %39

38:                                               ; preds = %28
  store i32 -17, ptr %3, align 4
  store i32 1, ptr %10, align 4
  br label %70

39:                                               ; preds = %28
  %40 = load ptr, ptr %6, align 8
  %41 = load i32, ptr %7, align 4
  %42 = load ptr, ptr %5, align 8
  %43 = call i32 @mz_zip_reader_extract_to_file(ptr noundef %40, i32 noundef %41, ptr noundef %42, i32 noundef 0)
  %44 = icmp ne i32 %43, 0
  br i1 %44, label %46, label %45

45:                                               ; preds = %39
  store i32 -19, ptr %3, align 4
  store i32 1, ptr %10, align 4
  br label %70

46:                                               ; preds = %39
  %47 = load ptr, ptr %6, align 8
  %48 = load i32, ptr %7, align 4
  %49 = call i32 @mz_zip_reader_file_stat(ptr noundef %47, i32 noundef %48, ptr noundef %9)
  %50 = icmp ne i32 %49, 0
  br i1 %50, label %52, label %51

51:                                               ; preds = %46
  store i32 -19, ptr %3, align 4
  store i32 1, ptr %10, align 4
  br label %70

52:                                               ; preds = %46
  %53 = getelementptr inbounds nuw %struct.mz_zip_archive_file_stat, ptr %9, i32 0, i32 10
  %54 = load i32, ptr %53, align 4
  %55 = lshr i32 %54, 16
  %56 = and i32 %55, 65535
  store i32 %56, ptr %8, align 4
  %57 = load i32, ptr %8, align 4
  %58 = icmp ugt i32 %57, 0
  br i1 %58, label %59, label %69

59:                                               ; preds = %52
  %60 = load i32, ptr %8, align 4
  %61 = icmp ule i32 %60, 65535
  br i1 %61, label %62, label %69

62:                                               ; preds = %59
  %63 = load ptr, ptr %5, align 8
  %64 = load i32, ptr %8, align 4
  %65 = call i32 @chmod(ptr noundef %63, i32 noundef %64) #13
  %66 = icmp slt i32 %65, 0
  br i1 %66, label %67, label %68

67:                                               ; preds = %62
  store i32 -20, ptr %3, align 4
  store i32 1, ptr %10, align 4
  br label %70

68:                                               ; preds = %62
  br label %69

69:                                               ; preds = %68, %59, %52
  store i32 0, ptr %3, align 4
  store i32 1, ptr %10, align 4
  br label %70

70:                                               ; preds = %69, %67, %51, %45, %38, %27, %13
  call void @llvm.lifetime.end.p0(i64 1112, ptr %9) #13
  call void @llvm.lifetime.end.p0(i64 4, ptr %8) #13
  call void @llvm.lifetime.end.p0(i64 4, ptr %7) #13
  call void @llvm.lifetime.end.p0(i64 8, ptr %6) #13
  %71 = load i32, ptr %3, align 4
  ret i32 %71
}