; Function Attrs: nounwind uwtable
define range(i32 -20, 1) i32 @zip_entry_fread(ptr noundef captures(address_is_null) %0, ptr noundef readonly captures(none) %1) local_unnamed_addr #8 {
  %3 = alloca %struct.mz_zip_archive_file_stat, align 8
  call void @llvm.lifetime.start.p0(i64 1112, ptr nonnull %3) #34
  %.not = icmp eq ptr %0, null
  br i1 %.not, label %mz_zip_reader_is_file_a_directory.exit.thread30, label %4

4:                                                ; preds = %2
  call void @llvm.memset.p0.i64(ptr noundef nonnull align 8 dereferenceable(1112) %3, i8 0, i64 1112, i1 false)
  %5 = getelementptr inbounds nuw i8, ptr %0, i64 20
  %6 = load i32, ptr %5, align 4
  %.not20 = icmp eq i32 %6, 1
  br i1 %.not20, label %7, label %mz_zip_reader_is_file_a_directory.exit.thread30

7:                                                ; preds = %4
  %8 = getelementptr inbounds nuw i8, ptr %0, i64 120
  %9 = load i64, ptr %8, align 8
  %10 = icmp slt i64 %9, 0
  br i1 %10, label %mz_zip_reader_is_file_a_directory.exit.thread30, label %11

11:                                               ; preds = %7
  %12 = trunc i64 %9 to i32
  %13 = getelementptr inbounds nuw i8, ptr %0, i64 104
  %14 = load ptr, ptr %13, align 8
  %.not10.i.i = icmp eq ptr %14, null
  br i1 %.not10.i.i, label %mz_zip_reader_is_file_a_directory.exit.thread, label %15

15:                                               ; preds = %11
  %16 = getelementptr inbounds nuw i8, ptr %0, i64 16
  %17 = load i32, ptr %16, align 8
  %.not11.i.i = icmp ugt i32 %17, %12
  br i1 %.not11.i.i, label %mz_zip_get_cdh.exit.i, label %mz_zip_reader_is_file_a_directory.exit.thread

mz_zip_get_cdh.exit.i:                            ; preds = %15
  %18 = load ptr, ptr %14, align 8
  %19 = getelementptr inbounds nuw i8, ptr %14, i64 32
  %20 = load ptr, ptr %19, align 8
  %21 = and i64 %9, 4294967295
  %22 = getelementptr inbounds nuw i32, ptr %20, i64 %21
  %23 = load i32, ptr %22, align 4
  %24 = zext i32 %23 to i64
  %25 = getelementptr inbounds nuw i8, ptr %18, i64 %24
  %.not.i = icmp eq ptr %18, null
  br i1 %.not.i, label %mz_zip_reader_is_file_a_directory.exit.thread, label %27

mz_zip_reader_is_file_a_directory.exit.thread:    ; preds = %11, %15, %mz_zip_get_cdh.exit.i
  %26 = getelementptr inbounds nuw i8, ptr %0, i64 28
  store i32 24, ptr %26, align 4
  br label %46

27:                                               ; preds = %mz_zip_get_cdh.exit.i
  %28 = getelementptr inbounds nuw i8, ptr %25, i64 28
  %29 = load i8, ptr %28, align 1
  %30 = zext i8 %29 to i32
  %31 = getelementptr inbounds nuw i8, ptr %25, i64 29
  %32 = load i8, ptr %31, align 1
  %33 = zext i8 %32 to i32
  %34 = shl nuw nsw i32 %33, 8
  %35 = or disjoint i32 %34, %30
  %.not18.i = icmp eq i32 %35, 0
  br i1 %.not18.i, label %mz_zip_reader_is_file_a_directory.exit, label %36

36:                                               ; preds = %27
  %37 = getelementptr inbounds nuw i8, ptr %25, i64 46
  %38 = zext nneg i32 %35 to i64
  %39 = getelementptr inbounds nuw i8, ptr %37, i64 %38
  %40 = getelementptr inbounds i8, ptr %39, i64 -1
  %41 = load i8, ptr %40, align 1
  %42 = icmp eq i8 %41, 47
  br i1 %42, label %mz_zip_reader_is_file_a_directory.exit.thread30, label %mz_zip_reader_is_file_a_directory.exit

mz_zip_reader_is_file_a_directory.exit:           ; preds = %27, %36
  %43 = getelementptr inbounds nuw i8, ptr %25, i64 38
  %44 = load i8, ptr %43, align 1
  %45 = and i8 %44, 16
  %.not21 = icmp eq i8 %45, 0
  br i1 %.not21, label %46, label %mz_zip_reader_is_file_a_directory.exit.thread30

46:                                               ; preds = %mz_zip_reader_is_file_a_directory.exit.thread, %mz_zip_reader_is_file_a_directory.exit
  %47 = tail call i32 @mz_zip_reader_extract_to_file(ptr noundef nonnull %0, i32 noundef %12, ptr noundef %1, i32 noundef 0)
  %.not22 = icmp eq i32 %47, 0
  br i1 %.not22, label %mz_zip_reader_is_file_a_directory.exit.thread30, label %48

48:                                               ; preds = %46
  %49 = load ptr, ptr %13, align 8
  %.not10.i.i25 = icmp eq ptr %49, null
  br i1 %.not10.i.i25, label %mz_zip_reader_file_stat.exit, label %50

50:                                               ; preds = %48
  %51 = getelementptr inbounds nuw i8, ptr %0, i64 16
  %52 = load i32, ptr %51, align 8
  %.not11.i.i26 = icmp ugt i32 %52, %12
  br i1 %.not11.i.i26, label %53, label %mz_zip_reader_file_stat.exit

53:                                               ; preds = %50
  %54 = load ptr, ptr %49, align 8
  %55 = getelementptr inbounds nuw i8, ptr %49, i64 32
  %56 = load ptr, ptr %55, align 8
  %57 = and i64 %9, 4294967295
  %58 = getelementptr inbounds nuw i32, ptr %56, i64 %57
  %59 = load i32, ptr %58, align 4
  %60 = zext i32 %59 to i64
  %61 = getelementptr inbounds nuw i8, ptr %54, i64 %60
  br label %mz_zip_reader_file_stat.exit

mz_zip_reader_file_stat.exit:                     ; preds = %48, %50, %53
  %.0.i.i = phi ptr [ %61, %53 ], [ null, %50 ], [ null, %48 ]
  %62 = call fastcc range(i32 0, 2) i32 @mz_zip_file_stat_internal(ptr noundef nonnull %0, i32 noundef %12, ptr noundef %.0.i.i, ptr noundef nonnull %3, ptr noundef null)
  %.not23 = icmp eq i32 %62, 0
  br i1 %.not23, label %mz_zip_reader_is_file_a_directory.exit.thread30, label %63

63:                                               ; preds = %mz_zip_reader_file_stat.exit
  %64 = getelementptr inbounds nuw i8, ptr %3, i64 52
  %65 = load i32, ptr %64, align 4
  %.not24 = icmp ult i32 %65, 65536
  br i1 %.not24, label %70, label %66

66:                                               ; preds = %63
  %67 = lshr i32 %65, 16
  %68 = call i32 @chmod(ptr noundef %1, i32 noundef %67) #34
  %69 = icmp slt i32 %68, 0
  br i1 %69, label %mz_zip_reader_is_file_a_directory.exit.thread30, label %70

70:                                               ; preds = %66, %63
  br label %mz_zip_reader_is_file_a_directory.exit.thread30

mz_zip_reader_is_file_a_directory.exit.thread30:  ; preds = %36, %66, %mz_zip_reader_file_stat.exit, %46, %mz_zip_reader_is_file_a_directory.exit, %4, %7, %2, %70
  %.0 = phi i32 [ 0, %70 ], [ -1, %2 ], [ -3, %7 ], [ -3, %4 ], [ -17, %mz_zip_reader_is_file_a_directory.exit ], [ -19, %46 ], [ -19, %mz_zip_reader_file_stat.exit ], [ -20, %66 ], [ -17, %36 ]
  call void @llvm.lifetime.end.p0(i64 1112, ptr nonnull %3) #34
  ret i32 %.0
}